; Function Attrs: mustprogress uwtable
define void @_ZN7rocksdb16ImmutableOptionsC2Ev(ptr noundef nonnull align 8 dereferenceable(857) %this) unnamed_addr #2 align 2 personality ptr @__gxx_personality_v0 {
entry:
  %ref.tmp = alloca %"struct.rocksdb::Options", align 8
  call void @_ZN7rocksdb9DBOptionsC2Ev(ptr noundef nonnull align 8 dereferenceable(688) %ref.tmp)
  %0 = getelementptr inbounds i8, ptr %ref.tmp, i64 688
  invoke void @_ZN7rocksdb19ColumnFamilyOptionsC2Ev(ptr noundef nonnull align 8 dereferenceable(820) %0)
          to label %_ZN7rocksdb7OptionsC2Ev.exit unwind label %lpad.i

common.resume:                                    ; preds = %lpad.body, %lpad.i
  %common.resume.op = phi { ptr, i32 } [ %1, %lpad.i ], [ %eh.lpad-body, %lpad.body ]
  call void @_ZN7rocksdb9DBOptionsD2Ev(ptr noundef nonnull align 8 dereferenceable(688) %ref.tmp) #27
  resume { ptr, i32 } %common.resume.op

lpad.i:                                           ; preds = %entry
  %1 = landingpad { ptr, i32 }
          cleanup
  br label %common.resume

_ZN7rocksdb7OptionsC2Ev.exit:                     ; preds = %entry
  invoke void @_ZN7rocksdb18ImmutableDBOptionsC2ERKNS_9DBOptionsE(ptr noundef nonnull align 8 dereferenceable(569) %this, ptr noundef nonnull align 8 dereferenceable(688) %ref.tmp)
          to label %.noexc unwind label %lpad

.noexc:                                           ; preds = %_ZN7rocksdb7OptionsC2Ev.exit
  %2 = getelementptr inbounds i8, ptr %this, i64 576
  invoke void @_ZN7rocksdb18ImmutableCFOptionsC2ERKNS_19ColumnFamilyOptionsE(ptr noundef nonnull align 8 dereferenceable(281) %2, ptr noundef nonnull align 8 dereferenceable(820) %0)
          to label %invoke.cont unwind label %lpad.i.i

lpad.i.i:                                         ; preds = %.noexc
  %3 = landingpad { ptr, i32 }
          cleanup
  call void @_ZN7rocksdb18ImmutableDBOptionsD2Ev(ptr noundef nonnull align 8 dereferenceable(569) %this) #27
  br label %lpad.body

invoke.cont:                                      ; preds = %.noexc
  call void @_ZN7rocksdb19ColumnFamilyOptionsD2Ev(ptr noundef nonnull align 8 dereferenceable(820) %0) #27
  call void @_ZN7rocksdb9DBOptionsD2Ev(ptr noundef nonnull align 8 dereferenceable(688) %ref.tmp) #27
  ret void

lpad:                                             ; preds = %_ZN7rocksdb7OptionsC2Ev.exit
  %4 = landingpad { ptr, i32 }
          cleanup
  br label %lpad.body

lpad.body:                                        ; preds = %lpad.i.i, %lpad
  %eh.lpad-body = phi { ptr, i32 } [ %4, %lpad ], [ %3, %lpad.i.i ]
  call void @_ZN7rocksdb19ColumnFamilyOptionsD2Ev(ptr noundef nonnull align 8 dereferenceable(820) %0) #27
  br label %common.resume
}